Certificate:
    Data:
        Version: 3 (0x2)
        Serial Number:
            50:08:48:9e:60:db:fa:57:b1:68:a7:77
        Signature Algorithm: sha256WithRSAEncryption
        Issuer: C=BE, O=GlobalSign nv-sa, CN=GlobalSign Organization Validation CA - SHA256 - G2
        Validity
            Not Before: Mar 16 17:17:11 2023 GMT
            Not After : Feb 20 10:00:00 2024 GMT
        Subject: C=RU, ST=Saint Petersburg, L=Saint Petersburg, O=V Kontakte LLC, CN=*.vk.com
        Subject Public Key Info:
            Public Key Algorithm: id-ecPublicKey
                Public-Key: (256 bit)
                pub:
                    04:6c:27:80:d2:4b:e1:51:97:f4:3c:1b:5c:92:55:
                    4e:04:93:9c:f8:94:a3:d6:32:48:ab:6b:5f:fe:73:
                    31:68:92:7b:97:ff:94:9c:00:b2:80:6d:10:ee:2e:
                    92:4d:b9:aa:4d:4c:59:fa:74:d4:c5:6e:12:4e:4a:
                    31:5c:6b:1b:9e
                ASN1 OID: prime256v1
                NIST CURVE: P-256
        X509v3 extensions:
            X509v3 Key Usage: critical
                Digital Signature
            Authority Information Access: 
                CA Issuers - URI:http://secure.globalsign.com/cacert/gsorganizationvalsha2g2r1.crt
                OCSP - URI:http://ocsp2.globalsign.com/gsorganizationvalsha2g2
            X509v3 Certificate Policies: 
                Policy: 1.3.6.1.4.1.4146.1.20
                  CPS: https://www.globalsign.com/repository/
                Policy: 2.23.140.1.2.2
            X509v3 Basic Constraints: 
                CA:FALSE
            X509v3 Subject Alternative Name: 
                DNS:*.vk.com, DNS:*.vk-portal.ru, DNS:*.vk.cc, DNS:*.vk.design, DNS:*.vk.link, DNS:*.vk.me, DNS:*.vk.ru, DNS:*.vkontakte.com, DNS:*.vkontakte.ru, DNS:stats.vk-portal.net, DNS:vk.cc, DNS:vk.design, DNS:vk.link, DNS:vk.me, DNS:vk.ru, DNS:vkontakte.com, DNS:vkontakte.ru, DNS:vk.com
            X509v3 Extended Key Usage: 
                TLS Web Server Authentication, TLS Web Client Authentication
            X509v3 Authority Key Identifier: 
                96:DE:61:F1:BD:1C:16:29:53:1C:C0:CC:7D:3B:83:00:40:E6:1A:7C
            X509v3 Subject Key Identifier: 
                F1:57:FB:45:8A:AF:94:7A:B0:19:1A:06:8F:4D:6E:C3:F7:B4:EE:08
            CT Precertificate SCTs: 
                Signed Certificate Timestamp:
                    Version   : v1 (0x0)
                    Log ID    : EE:CD:D0:64:D5:DB:1A:CE:C5:5C:B7:9D:B4:CD:13:A2:
                                32:87:46:7C:BC:EC:DE:C3:51:48:59:46:71:1F:B5:9B
                    Timestamp : Mar 16 17:17:18.044 2023 GMT
                    Extensions: none
                    Signature : ecdsa-with-SHA256
                                30:45:02:20:63:DB:CC:F1:41:3A:1C:66:12:60:2A:EF:
                                70:A6:7B:9C:4B:2E:B2:C7:F6:1B:DE:9A:43:F2:35:8F:
                                CA:1B:29:B3:02:21:00:B0:B6:7E:67:4F:B0:F5:59:C9:
                                21:EB:04:1D:6D:89:F3:16:A9:D0:37:0D:84:DE:E5:E8:
                                E7:A1:AD:AA:BD:52:0B
                Signed Certificate Timestamp:
                    Version   : v1 (0x0)
                    Log ID    : 76:FF:88:3F:0A:B6:FB:95:51:C2:61:CC:F5:87:BA:34:
                                B4:A4:CD:BB:29:DC:68:42:0A:9F:E6:67:4C:5A:3A:74
                    Timestamp : Mar 16 17:17:18.111 2023 GMT
                    Extensions: none
                    Signature : ecdsa-with-SHA256
                                30:46:02:21:00:93:97:5E:9E:63:43:51:B6:67:1D:ED:
                                35:8D:64:64:7F:80:3A:97:A8:46:14:C7:2F:36:AD:93:
                                3E:4B:7C:97:62:02:21:00:CC:84:2E:D9:DC:4D:3E:14:
                                68:34:53:C1:BC:E3:43:75:00:FB:6F:5F:26:26:70:50:
                                94:C3:79:71:77:1F:75:CB
                Signed Certificate Timestamp:
                    Version   : v1 (0x0)
                    Log ID    : DA:B6:BF:6B:3F:B5:B6:22:9F:9B:C2:BB:5C:6B:E8:70:
                                91:71:6C:BB:51:84:85:34:BD:A4:3D:30:48:D7:FB:AB
                    Timestamp : Mar 16 17:17:18.098 2023 GMT
                    Extensions: none
                    Signature : ecdsa-with-SHA256
                                30:45:02:21:00:EE:04:C0:66:A5:D5:F6:7E:B0:06:09:
                                80:06:A4:B8:D8:6F:6F:EB:AD:10:5B:0A:31:7B:DF:F4:
                                B9:7A:06:B5:F4:02:20:78:4C:2C:75:9D:44:7C:68:57:
                                B8:48:E1:AE:B6:29:50:31:04:FA:62:10:B9:01:AC:F1:
                                83:F3:9E:CF:88:73:3D
    Signature Algorithm: sha256WithRSAEncryption
    Signature Value:
        19:10:51:9a:74:8b:2c:52:8d:58:d8:d1:6d:e5:09:07:df:ff:
        5c:e7:54:53:ef:80:60:3a:dc:e3:10:09:d2:47:07:21:d6:74:
        15:68:ca:07:d0:60:8d:18:94:18:3a:de:58:10:9f:c6:ba:7c:
        66:f1:2d:c3:5e:9b:d3:be:56:da:86:29:e5:e1:d2:08:12:4d:
        fa:e4:89:86:c6:e2:1a:9a:9e:d6:c9:70:41:ad:d2:08:50:ac:
        af:be:ae:41:67:bd:eb:d6:c6:b1:fa:5a:31:72:66:bf:21:c6:
        d7:45:2b:a1:b4:ed:29:9e:9f:84:11:d4:2d:fb:05:df:bc:fa:
        92:a3:6a:ab:68:2e:03:70:fb:94:a4:be:9b:68:37:84:e3:f1:
        ff:e1:b5:11:fb:9c:33:3f:63:6c:ab:07:28:e9:6a:56:d1:fb:
        46:17:06:f0:01:c6:d2:37:f5:0b:62:9f:30:79:6b:ae:4f:23:
        70:1a:18:0e:ec:73:e5:66:fc:55:79:e4:d9:09:7f:f3:c4:aa:
        68:d7:82:72:5a:09:bb:7b:9a:a8:5e:a5:e8:ff:48:be:fd:82:
        39:40:5c:06:42:72:2c:f5:07:1e:cb:02:1f:a1:88:17:01:9b:
        01:61:69:c2:2c:ba:c3:f2:37:2e:02:e5:20:f1:21:24:e6:54:
        b3:52:32:da
-----BEGIN CERTIFICATE-----
MIIGbTCCBVWgAwIBAgIMUAhInmDb+lexaKd3MA0GCSqGSIb3DQEBCwUAMGYxCzAJ
BgNVBAYTAkJFMRkwFwYDVQQKExBHbG9iYWxTaWduIG52LXNhMTwwOgYDVQQDEzNH
bG9iYWxTaWduIE9yZ2FuaXphdGlvbiBWYWxpZGF0aW9uIENBIC0gU0hBMjU2IC0g
RzIwHhcNMjMwMzE2MTcxNzExWhcNMjQwMjIwMTAwMDAwWjBvMQswCQYDVQQGEwJS
VTEZMBcGA1UECBMQU2FpbnQgUGV0ZXJzYnVyZzEZMBcGA1UEBxMQU2FpbnQgUGV0
ZXJzYnVyZzEXMBUGA1UEChMOViBLb250YWt0ZSBMTEMxETAPBgNVBAMMCCoudmsu
Y29tMFkwEwYHKoZIzj0CAQYIKoZIzj0DAQcDQgAEbCeA0kvhUZf0PBtcklVOBJOc
+JSj1jJIq2tf/nMxaJJ7l/+UnACygG0Q7i6STbmqTUxZ+nTUxW4STkoxXGsbnqOC
A9swggPXMA4GA1UdDwEB/wQEAwIHgDCBoAYIKwYBBQUHAQEEgZMwgZAwTQYIKwYB
BQUHMAKGQWh0dHA6Ly9zZWN1cmUuZ2xvYmFsc2lnbi5jb20vY2FjZXJ0L2dzb3Jn
YW5pemF0aW9udmFsc2hhMmcycjEuY3J0MD8GCCsGAQUFBzABhjNodHRwOi8vb2Nz
cDIuZ2xvYmFsc2lnbi5jb20vZ3Nvcmdhbml6YXRpb252YWxzaGEyZzIwVgYDVR0g
BE8wTTBBBgkrBgEEAaAyARQwNDAyBggrBgEFBQcCARYmaHR0cHM6Ly93d3cuZ2xv
YmFsc2lnbi5jb20vcmVwb3NpdG9yeS8wCAYGZ4EMAQICMAkGA1UdEwQCMAAwgdwG
A1UdEQSB1DCB0YIIKi52ay5jb22CDioudmstcG9ydGFsLnJ1ggcqLnZrLmNjggsq
LnZrLmRlc2lnboIJKi52ay5saW5rggcqLnZrLm1lggcqLnZrLnJ1gg8qLnZrb250
YWt0ZS5jb22CDioudmtvbnRha3RlLnJ1ghNzdGF0cy52ay1wb3J0YWwubmV0ggV2
ay5jY4IJdmsuZGVzaWduggd2ay5saW5rggV2ay5tZYIFdmsucnWCDXZrb250YWt0
ZS5jb22CDHZrb250YWt0ZS5ydYIGdmsuY29tMB0GA1UdJQQWMBQGCCsGAQUFBwMB
BggrBgEFBQcDAjAfBgNVHSMEGDAWgBSW3mHxvRwWKVMcwMx9O4MAQOYafDAdBgNV
HQ4EFgQU8Vf7RYqvlHqwGRoGj01uw/e07ggwggF/BgorBgEEAdZ5AgQCBIIBbwSC
AWsBaQB2AO7N0GTV2xrOxVy3nbTNE6Iyh0Z8vOzew1FIWUZxH7WbAAABhuttDVwA
AAQDAEcwRQIgY9vM8UE6HGYSYCrvcKZ7nEsussf2G96aQ/I1j8obKbMCIQCwtn5n
T7D1Wckh6wQdbYnzFqnQNw2E3uXo56Gtqr1SCwB3AHb/iD8KtvuVUcJhzPWHujS0
pM27KdxoQgqf5mdMWjp0AAABhuttDZ8AAAQDAEgwRgIhAJOXXp5jQ1G2Zx3tNY1k
ZH+AOpeoRhTHLzatkz5LfJdiAiEAzIQu2dxNPhRoNFPBvONDdQD7b18mJnBQlMN5
cXcfdcsAdgDatr9rP7W2Ip+bwrtca+hwkXFsu1GEhTS9pD0wSNf7qwAAAYbrbQ2S
AAAEAwBHMEUCIQDuBMBmpdX2frAGCYAGpLjYb2/rrRBbCjF73/S5ega19AIgeEws
dZ1EfGhXuEjhrrYpUDEE+mIQuQGs8YPzns+Icz0wDQYJKoZIhvcNAQELBQADggEB
ABkQUZp0iyxSjVjY0W3lCQff/1znVFPvgGA63OMQCdJHByHWdBVoygfQYI0YlBg6
3lgQn8a6fGbxLcNem9O+VtqGKeXh0ggSTfrkiYbG4hqantbJcEGt0ghQrK++rkFn
vevWxrH6WjFyZr8hxtdFK6G07Smen4QR1C37Bd+8+pKjaqtoLgNw+5SkvptoN4Tj
8f/htRH7nDM/Y2yrByjpalbR+0YXBvABxtI39QtinzB5a65PI3AaGA7sc+Vm/FV5
5NkJf/PEqmjXgnJaCbt7mqhepej/SL79gjlAXAZCciz1Bx7LAh+hiBcBmwFhacIs
usPyNy4C5SDxISTmVLNSMto=
-----END CERTIFICATE-----
